; Function Attrs: mustprogress uwtable
define hidden noundef zeroext i1 @_ZN6google8protobuf24SimpleDescriptorDatabase9MaybeCopyEPKNS0_19FileDescriptorProtoEPS2_(ptr noundef nonnull readnone align 8 captures(none) dereferenceable(176) %0, ptr noundef %1, ptr noundef %2) local_unnamed_addr #6 align 2 {
  %4 = icmp ne ptr %1, null
  br i1 %4, label %5, label %6

5:                                                ; preds = %3
  tail call void @_ZN6google8protobuf19FileDescriptorProto8CopyFromERKS1_(ptr noundef nonnull align 8 dereferenceable(216) %2, ptr noundef nonnull align 8 dereferenceable(216) %1)
  br label %6

6:                                                ; preds = %3, %5
  ret i1 %4
}